ELF Header:
  Magic:   7f 45 4c 46 02 01 01 00 00 00 00 00 00 00 00 00 
  Class:                             ELF64
  Data:                              2's complement, little endian
  Version:                           1 (current)
  OS/ABI:                            UNIX - System V
  ABI Version:                       0
  Type:                              EXEC (Executable file)
  Machine:                           AArch64
  Version:                           0x1
  Entry point address:               0x80000
  Start of program headers:          64 (bytes into file)
  Start of section headers:          107488 (bytes into file)
  Flags:                             0x0
  Size of this header:               64 (bytes)
  Size of program headers:           56 (bytes)
  Number of program headers:         1
  Size of section headers:           64 (bytes)
  Number of section headers:         19
  Section header string table index: 18

Section Headers:
  [Nr] Name              Type             Address           Offset
       Size              EntSize          Flags  Link  Info  Align
  [ 0]                   NULL             0000000000000000  00000000
       0000000000000000  0000000000000000           0     0     0
  [ 1] .text             PROGBITS         0000000000080000  00000800
       0000000000011768  0000000000000000  AX       0     0     16
  [ 2] .text.bootstrap   PROGBITS         0000000000091768  00011f68
       00000000000000a8  0000000000000000  AX       0     0     4
  [ 3] .text.except[...] PROGBITS         0000000000092000  00012800
       0000000000000838  0000000000000000  AX       0     0     2048
  [ 4] .rodata           PROGBITS         0000000000092838  00013038
       0000000000000319  0000000000000000   A       0     0     8
  [ 5] .data             PROGBITS         0000000000092b58  00013358
       0000000000000020  0000000000000000  WA       0     0     8
  [ 6] .init_array       INIT_ARRAY       0000000000092b78  00013378
       0000000000000010  0000000000000008  WA       0     0     8
  [ 7] .bss              NOBITS           0000000000092b90  00013388
       0000000000001040  0000000000000000  WA       0     0     16
  [ 8] .debug_info       PROGBITS         0000000000000000  00013388
       0000000000002137  0000000000000000           0     0     1
  [ 9] .debug_abbrev     PROGBITS         0000000000000000  000154bf
       0000000000000cf1  0000000000000000           0     0     1
  [10] .debug_aranges    PROGBITS         0000000000000000  000161b0
       00000000000001e0  0000000000000000           0     0     16
  [11] .debug_line       PROGBITS         0000000000000000  00016390
       0000000000000ad5  0000000000000000           0     0     1
  [12] .debug_str        PROGBITS         0000000000000000  00016e65
       0000000000000ba3  0000000000000001  MS       0     0     1
  [13] .debug_line_str   PROGBITS         0000000000000000  00017a08
       0000000000000166  0000000000000001  MS       0     0     1
  [14] .comment          PROGBITS         0000000000000000  00017b6e
       0000000000000045  0000000000000001  MS       0     0     1
  [15] .debug_frame      PROGBITS         0000000000000000  00017bb8
       0000000000000690  0000000000000000           0     0     8
  [16] .symtab           SYMTAB           0000000000000000  00018248
       0000000000001680  0000000000000018          17   186     8
  [17] .strtab           STRTAB           0000000000000000  000198c8
       0000000000000a41  0000000000000000           0     0     1
  [18] .shstrtab         STRTAB           0000000000000000  0001a309
       00000000000000d3  0000000000000000           0     0     1
Key to Flags:
  W (write), A (alloc), X (execute), M (merge), S (strings), I (info),
  L (link order), O (extra OS processing required), G (group), T (TLS),
  C (compressed), x (unknown), o (OS specific), E (exclude),
  D (mbind), p (processor specific)

There are no section groups in this file.

Program Headers:
  Type           Offset             VirtAddr           PhysAddr
                 FileSiz            MemSiz              Flags  Align
  LOAD           0x0000000000000800 0x0000000000080000 0x0000000000080000
                 0x0000000000012b88 0x0000000000013bd0  RWE    0x800

 Section to Segment mapping:
  Segment Sections...
   00     .text .text.bootstrap .text.exception_vector_table .rodata .data .init_array .bss 

There is no dynamic section in this file.

There are no relocations in this file.

The decoding of unwind sections for machine type AArch64 is not currently supported.

Symbol table '.symtab' contains 240 entries:
   Num:    Value          Size Type    Bind   Vis      Ndx Name
     0: 0000000000000000     0 NOTYPE  LOCAL  DEFAULT  UND 
     1: 0000000000080000     0 SECTION LOCAL  DEFAULT    1 .text
     2: 0000000000091768     0 SECTION LOCAL  DEFAULT    2 .text.bootstrap
     3: 0000000000092000     0 SECTION LOCAL  DEFAULT    3 .text.exception_[...]
     4: 0000000000092838     0 SECTION LOCAL  DEFAULT    4 .rodata
     5: 0000000000092b58     0 SECTION LOCAL  DEFAULT    5 .data
     6: 0000000000092b78     0 SECTION LOCAL  DEFAULT    6 .init_array
     7: 0000000000092b90     0 SECTION LOCAL  DEFAULT    7 .bss
     8: 0000000000000000     0 SECTION LOCAL  DEFAULT    8 .debug_info
     9: 0000000000000000     0 SECTION LOCAL  DEFAULT    9 .debug_abbrev
    10: 0000000000000000     0 SECTION LOCAL  DEFAULT   10 .debug_aranges
    11: 0000000000000000     0 SECTION LOCAL  DEFAULT   11 .debug_line
    12: 0000000000000000     0 SECTION LOCAL  DEFAULT   12 .debug_str
    13: 0000000000000000     0 SECTION LOCAL  DEFAULT   13 .debug_line_str
    14: 0000000000000000     0 SECTION LOCAL  DEFAULT   14 .comment
    15: 0000000000000000     0 SECTION LOCAL  DEFAULT   15 .debug_frame
    16: 0000000000000000     0 FILE    LOCAL  DEFAULT  ABS boot.o
    17: 0000000000080000     0 NOTYPE  LOCAL  DEFAULT    1 $x
    18: 0000000000080028     0 NOTYPE  LOCAL  DEFAULT    1 el1_entry
    19: 000000000008004c     0 NOTYPE  LOCAL  DEFAULT    1 check_bss_bounds
    20: 0000000000080044     0 NOTYPE  LOCAL  DEFAULT    1 clear_bss_entry
    21: 0000000000080058     0 NOTYPE  LOCAL  DEFAULT    1 program_startup
    22: 00000000000900a0     0 NOTYPE  LOCAL  DEFAULT    1 stackend
    23: 0000000000080090     0 NOTYPE  LOCAL  DEFAULT    1 exit
    24: 00000000000800a0     0 NOTYPE  LOCAL  DEFAULT    1 stack
    25: 00000000000800a0     0 NOTYPE  LOCAL  DEFAULT    1 $d
    26: 00000000000900a0     0 NOTYPE  LOCAL  DEFAULT    1 $d
    27: 0000000000000000     0 FILE    LOCAL  DEFAULT  ABS log.cc
    28: 0000000000092838     0 NOTYPE  LOCAL  DEFAULT    4 $d
    29: 0000000000092838     8 OBJECT  LOCAL  DEFAULT    4 _ZL9MMIO_BASE
    30: 0000000000092840     8 OBJECT  LOCAL  DEFAULT    4 _ZL10TIMER_BASE
    31: 0000000000092848     4 OBJECT  LOCAL  DEFAULT    4 _ZL8TIMER_CS
    32: 000000000009284c     4 OBJECT  LOCAL  DEFAULT    4 _ZL9TIMER_CLO
    33: 0000000000092850     4 OBJECT  LOCAL  DEFAULT    4 _ZL9TIMER_CHI
    34: 0000000000092854     4 OBJECT  LOCAL  DEFAULT    4 _ZL8TIMER_C0
    35: 0000000000092858     4 OBJECT  LOCAL  DEFAULT    4 _ZL8TIMER_C1
    36: 000000000009285c     4 OBJECT  LOCAL  DEFAULT    4 _ZL8TIMER_C2
    37: 0000000000092860     4 OBJECT  LOCAL  DEFAULT    4 _ZL8TIMER_C3
    38: 0000000000092b58     0 NOTYPE  LOCAL  DEFAULT    5 $d
    39: 00000000000900d8     0 NOTYPE  LOCAL  DEFAULT    1 $x
    40: 0000000000000000     0 FILE    LOCAL  DEFAULT  ABS main.cc
    41: 0000000000092868     0 NOTYPE  LOCAL  DEFAULT    4 $d
    42: 0000000000092868     8 OBJECT  LOCAL  DEFAULT    4 _ZL9MMIO_BASE
    43: 0000000000092870     8 OBJECT  LOCAL  DEFAULT    4 _ZL10TIMER_BASE
    44: 0000000000092878     4 OBJECT  LOCAL  DEFAULT    4 _ZL8TIMER_CS
    45: 000000000009287c     4 OBJECT  LOCAL  DEFAULT    4 _ZL9TIMER_CLO
    46: 0000000000092880     4 OBJECT  LOCAL  DEFAULT    4 _ZL9TIMER_CHI
    47: 0000000000092884     4 OBJECT  LOCAL  DEFAULT    4 _ZL8TIMER_C0
    48: 0000000000092888     4 OBJECT  LOCAL  DEFAULT    4 _ZL8TIMER_C1
    49: 000000000009288c     4 OBJECT  LOCAL  DEFAULT    4 _ZL8TIMER_C2
    50: 0000000000092890     4 OBJECT  LOCAL  DEFAULT    4 _ZL8TIMER_C3
    51: 0000000000092898     8 OBJECT  LOCAL  DEFAULT    4 _ZL12MEMORY_START
    52: 00000000000928a0     8 OBJECT  LOCAL  DEFAULT    4 _ZL10MEMORY_END
    53: 00000000000928a8     4 OBJECT  LOCAL  DEFAULT    4 _ZL10STACK_SIZE
    54: 00000000000901f4     0 NOTYPE  LOCAL  DEFAULT    1 $x
    55: 00000000000901f4    84 FUNC    LOCAL  DEFAULT    1 _ZL16callConstru[...]
    56: 000000000009025c   220 FUNC    LOCAL  DEFAULT    1 _ZL13task_functionv
    57: 0000000000090338   124 FUNC    LOCAL  DEFAULT    1 _ZL10initializev
    58: 000000000009052c   348 FUNC    LOCAL  DEFAULT    1 _ZL8mainloopv
    59: 0000000000000000     0 FILE    LOCAL  DEFAULT  ABS ringbuffer.cc
    60: 00000000000929b0     0 NOTYPE  LOCAL  DEFAULT    4 $d
    61: 00000000000929b0     8 OBJECT  LOCAL  DEFAULT    4 _ZL9MMIO_BASE
    62: 00000000000929b8     8 OBJECT  LOCAL  DEFAULT    4 _ZL10TIMER_BASE
    63: 00000000000929c0     4 OBJECT  LOCAL  DEFAULT    4 _ZL8TIMER_CS
    64: 00000000000929c4     4 OBJECT  LOCAL  DEFAULT    4 _ZL9TIMER_CLO
    65: 00000000000929c8     4 OBJECT  LOCAL  DEFAULT    4 _ZL9TIMER_CHI
    66: 00000000000929cc     4 OBJECT  LOCAL  DEFAULT    4 _ZL8TIMER_C0
    67: 00000000000929d0     4 OBJECT  LOCAL  DEFAULT    4 _ZL8TIMER_C1
    68: 00000000000929d4     4 OBJECT  LOCAL  DEFAULT    4 _ZL8TIMER_C2
    69: 00000000000929d8     4 OBJECT  LOCAL  DEFAULT    4 _ZL8TIMER_C3
    70: 0000000000092b90     0 NOTYPE  LOCAL  DEFAULT    7 $d
    71: 00000000000906b8     0 NOTYPE  LOCAL  DEFAULT    1 $x
    72: 0000000000000000     0 FILE    LOCAL  DEFAULT  ABS rpi.cc
    73: 00000000000929e0     0 NOTYPE  LOCAL  DEFAULT    4 $d
    74: 00000000000929e0     8 OBJECT  LOCAL  DEFAULT    4 _ZL9MMIO_BASE
    75: 00000000000929e8     8 OBJECT  LOCAL  DEFAULT    4 _ZL10TIMER_BASE
    76: 00000000000929f0     4 OBJECT  LOCAL  DEFAULT    4 _ZL8TIMER_CS
    77: 00000000000929f4     4 OBJECT  LOCAL  DEFAULT    4 _ZL9TIMER_CLO
    78: 00000000000929f8     4 OBJECT  LOCAL  DEFAULT    4 _ZL9TIMER_CHI
    79: 00000000000929fc     4 OBJECT  LOCAL  DEFAULT    4 _ZL8TIMER_C0
    80: 0000000000092a00     4 OBJECT  LOCAL  DEFAULT    4 _ZL8TIMER_C1
    81: 0000000000092a04     4 OBJECT  LOCAL  DEFAULT    4 _ZL8TIMER_C2
    82: 0000000000092a08     4 OBJECT  LOCAL  DEFAULT    4 _ZL8TIMER_C3
    83: 0000000000092a10     8 OBJECT  LOCAL  DEFAULT    4 _ZL9GPIO_BASE
    84: 0000000000092a18    24 OBJECT  LOCAL  DEFAULT    4 _ZL14GPFSEL_OFFSETS
    85: 0000000000092a30    16 OBJECT  LOCAL  DEFAULT    4 _ZL26GPIO_PUP_PD[...]
    86: 0000000000092a40     4 OBJECT  LOCAL  DEFAULT    4 _ZL10GPIO_INPUT
    87: 0000000000092a44     4 OBJECT  LOCAL  DEFAULT    4 _ZL11GPIO_OUTPUT
    88: 0000000000092a48     4 OBJECT  LOCAL  DEFAULT    4 _ZL11GPIO_ALTFN0
    89: 0000000000092a4c     4 OBJECT  LOCAL  DEFAULT    4 _ZL11GPIO_ALTFN1
    90: 0000000000092a50     4 OBJECT  LOCAL  DEFAULT    4 _ZL11GPIO_ALTFN2
    91: 0000000000092a54     4 OBJECT  LOCAL  DEFAULT    4 _ZL11GPIO_ALTFN3
    92: 0000000000092a58     4 OBJECT  LOCAL  DEFAULT    4 _ZL11GPIO_ALTFN4
    93: 0000000000092a5c     4 OBJECT  LOCAL  DEFAULT    4 _ZL11GPIO_ALTFN5
    94: 0000000000092a60     4 OBJECT  LOCAL  DEFAULT    4 _ZL9GPIO_NONE
    95: 0000000000092a64     4 OBJECT  LOCAL  DEFAULT    4 _ZL8GPIO_PUP
    96: 0000000000092a68     4 OBJECT  LOCAL  DEFAULT    4 _ZL8GPIO_PDP
    97: 00000000000908c8     0 NOTYPE  LOCAL  DEFAULT    1 $x
    98: 00000000000908c8   392 FUNC    LOCAL  DEFAULT    1 _ZL10setup_gpiojjj
    99: 0000000000092a70     8 OBJECT  LOCAL  DEFAULT    4 _ZL10UART0_BASE
   100: 0000000000092a78     8 OBJECT  LOCAL  DEFAULT    4 _ZL10UART3_BASE
   101: 0000000000093ba0    24 OBJECT  LOCAL  DEFAULT    7 _ZL10line_uarts
   102: 0000000000093ba0     0 NOTYPE  LOCAL  DEFAULT    7 $d
   103: 0000000000092a80     4 OBJECT  LOCAL  DEFAULT    4 _ZL7UART_DR
   104: 0000000000092a84     4 OBJECT  LOCAL  DEFAULT    4 _ZL7UART_FR
   105: 0000000000092a88     4 OBJECT  LOCAL  DEFAULT    4 _ZL9UART_IBRD
   106: 0000000000092a8c     4 OBJECT  LOCAL  DEFAULT    4 _ZL9UART_FBRD
   107: 0000000000092a90     4 OBJECT  LOCAL  DEFAULT    4 _ZL9UART_LCRH
   108: 0000000000092a94     4 OBJECT  LOCAL  DEFAULT    4 _ZL7UART_CR
   109: 0000000000092a98     4 OBJECT  LOCAL  DEFAULT    4 _ZL12UART_FR_RXFE
   110: 0000000000092a9c     4 OBJECT  LOCAL  DEFAULT    4 _ZL12UART_FR_TXFF
   111: 0000000000092aa0     4 OBJECT  LOCAL  DEFAULT    4 _ZL12UART_FR_RXFF
   112: 0000000000092aa4     4 OBJECT  LOCAL  DEFAULT    4 _ZL12UART_FR_TXFE
   113: 0000000000092aa8     4 OBJECT  LOCAL  DEFAULT    4 _ZL14UART_CR_UARTEN
   114: 0000000000092aac     4 OBJECT  LOCAL  DEFAULT    4 _ZL11UART_CR_LBE
   115: 0000000000092ab0     4 OBJECT  LOCAL  DEFAULT    4 _ZL11UART_CR_TXE
   116: 0000000000092ab4     4 OBJECT  LOCAL  DEFAULT    4 _ZL11UART_CR_RXE
   117: 0000000000092ab8     4 OBJECT  LOCAL  DEFAULT    4 _ZL11UART_CR_RTS
   118: 0000000000092abc     4 OBJECT  LOCAL  DEFAULT    4 _ZL13UART_CR_RTSEN
   119: 0000000000092ac0     4 OBJECT  LOCAL  DEFAULT    4 _ZL13UART_CR_CTSEN
   120: 0000000000092ac4     4 OBJECT  LOCAL  DEFAULT    4 _ZL13UART_LCRH_PEN
   121: 0000000000092ac8     4 OBJECT  LOCAL  DEFAULT    4 _ZL13UART_LCRH_EPS
   122: 0000000000092acc     4 OBJECT  LOCAL  DEFAULT    4 _ZL14UART_LCRH_STP2
   123: 0000000000092ad0     4 OBJECT  LOCAL  DEFAULT    4 _ZL13UART_LCRH_FEN
   124: 0000000000092ad4     4 OBJECT  LOCAL  DEFAULT    4 _ZL18UART_LCRH_W[...]
   125: 0000000000092ad8     4 OBJECT  LOCAL  DEFAULT    4 _ZL19UART_LCRH_W[...]
   126: 00000000000911c8    92 FUNC    LOCAL  DEFAULT    1 _Z41__static_ini[...]
   127: 0000000000091224    28 FUNC    LOCAL  DEFAULT    1 _GLOBAL__sub_I__[...]
   128: 0000000000092b78     0 NOTYPE  LOCAL  DEFAULT    6 $d
   129: 0000000000000000     0 FILE    LOCAL  DEFAULT  ABS task_allocator.cc
   130: 0000000000092ae0     0 NOTYPE  LOCAL  DEFAULT    4 $d
   131: 0000000000092ae0     8 OBJECT  LOCAL  DEFAULT    4 _ZL12MEMORY_START
   132: 0000000000092ae8     8 OBJECT  LOCAL  DEFAULT    4 _ZL10MEMORY_END
   133: 0000000000092af0     4 OBJECT  LOCAL  DEFAULT    4 _ZL10STACK_SIZE
   134: 0000000000092b60     0 NOTYPE  LOCAL  DEFAULT    5 $d
   135: 0000000000092b60     8 OBJECT  LOCAL  DEFAULT    5 _ZL10SLAB_START
   136: 0000000000092b68     8 OBJECT  LOCAL  DEFAULT    5 _ZL8SLAB_END
   137: 0000000000093bb8     8 OBJECT  LOCAL  DEFAULT    7 _ZL9SLAB_SIZE
   138: 0000000000093bb8     0 NOTYPE  LOCAL  DEFAULT    7 $d
   139: 0000000000092af8     8 OBJECT  LOCAL  DEFAULT    4 _ZL34TASK_DESCRI[...]
   140: 0000000000093bc0     8 OBJECT  LOCAL  DEFAULT    7 _ZL9NUM_SLABS
   141: 0000000000091240     0 NOTYPE  LOCAL  DEFAULT    1 $x
   142: 0000000000091370   148 FUNC    LOCAL  DEFAULT    1 _Z41__static_ini[...]
   143: 0000000000091404    28 FUNC    LOCAL  DEFAULT    1 _GLOBAL__sub_I__[...]
   144: 0000000000092b80     0 NOTYPE  LOCAL  DEFAULT    6 $d
   145: 0000000000000000     0 FILE    LOCAL  DEFAULT  ABS task.cc
   146: 0000000000092b00     0 NOTYPE  LOCAL  DEFAULT    4 $d
   147: 0000000000092b00     8 OBJECT  LOCAL  DEFAULT    4 _ZL12MEMORY_START
   148: 0000000000092b08     8 OBJECT  LOCAL  DEFAULT    4 _ZL10MEMORY_END
   149: 0000000000092b10     4 OBJECT  LOCAL  DEFAULT    4 _ZL10STACK_SIZE
   150: 0000000000093bc8     0 NOTYPE  LOCAL  DEFAULT    7 $d
   151: 0000000000091420     0 NOTYPE  LOCAL  DEFAULT    1 $x
   152: 0000000000000000     0 FILE    LOCAL  DEFAULT  ABS util.cc
   153: 0000000000092b18     0 NOTYPE  LOCAL  DEFAULT    4 $d
   154: 0000000000092b18     8 OBJECT  LOCAL  DEFAULT    4 _ZL9MMIO_BASE
   155: 0000000000092b20     8 OBJECT  LOCAL  DEFAULT    4 _ZL10TIMER_BASE
   156: 0000000000092b28     4 OBJECT  LOCAL  DEFAULT    4 _ZL8TIMER_CS
   157: 0000000000092b2c     4 OBJECT  LOCAL  DEFAULT    4 _ZL9TIMER_CLO
   158: 0000000000092b30     4 OBJECT  LOCAL  DEFAULT    4 _ZL9TIMER_CHI
   159: 0000000000092b34     4 OBJECT  LOCAL  DEFAULT    4 _ZL8TIMER_C0
   160: 0000000000092b38     4 OBJECT  LOCAL  DEFAULT    4 _ZL8TIMER_C1
   161: 0000000000092b3c     4 OBJECT  LOCAL  DEFAULT    4 _ZL8TIMER_C2
   162: 0000000000092b40     4 OBJECT  LOCAL  DEFAULT    4 _ZL8TIMER_C3
   163: 0000000000092b70     0 NOTYPE  LOCAL  DEFAULT    5 $d
   164: 0000000000091478     0 NOTYPE  LOCAL  DEFAULT    1 $x
   165: 0000000000000000     0 FILE    LOCAL  DEFAULT  ABS bootstrap.o
   166: 0000000000091768     0 NOTYPE  LOCAL  DEFAULT    2 $x
   167: 0000000000000000     0 FILE    LOCAL  DEFAULT  ABS exception_vector[...]
   168: 0000000000092000     0 NOTYPE  LOCAL  DEFAULT    3 $x
   169: 0000000000092000     0 NOTYPE  LOCAL  DEFAULT    3 curr_el_sp0_sync
   170: 0000000000092080     0 NOTYPE  LOCAL  DEFAULT    3 curr_el_sp0_irq
   171: 0000000000092100     0 NOTYPE  LOCAL  DEFAULT    3 curr_el_sp0_fiq
   172: 0000000000092180     0 NOTYPE  LOCAL  DEFAULT    3 curr_el_sp0_serror
   173: 0000000000092200     0 NOTYPE  LOCAL  DEFAULT    3 curr_el_spx_sync
   174: 0000000000092280     0 NOTYPE  LOCAL  DEFAULT    3 curr_el_spx_irq
   175: 0000000000092300     0 NOTYPE  LOCAL  DEFAULT    3 curr_el_spx_fiq
   176: 0000000000092380     0 NOTYPE  LOCAL  DEFAULT    3 curr_el_spx_serror
   177: 0000000000092400     0 NOTYPE  LOCAL  DEFAULT    3 lower_el_aarch64_sync
   178: 0000000000092784     0 NOTYPE  LOCAL  DEFAULT    3 exception_hit
   179: 0000000000092480     0 NOTYPE  LOCAL  DEFAULT    3 lower_el_aarch64_irq
   180: 0000000000092500     0 NOTYPE  LOCAL  DEFAULT    3 lower_el_aarch64_fiq
   181: 0000000000092580     0 NOTYPE  LOCAL  DEFAULT    3 lower_el_aarch64[...]
   182: 0000000000092600     0 NOTYPE  LOCAL  DEFAULT    3 lower_el_aarch32_sync
   183: 0000000000092680     0 NOTYPE  LOCAL  DEFAULT    3 lower_el_aarch32_irq
   184: 0000000000092700     0 NOTYPE  LOCAL  DEFAULT    3 lower_el_aarch32_fiq
   185: 0000000000092780     0 NOTYPE  LOCAL  DEFAULT    3 lower_el_aarch32[...]
   186: 00000000000907c4   144 FUNC    GLOBAL DEFAULT    1 _Z4pushP10RingBufferh
   187: 0000000000090a50   116 FUNC    GLOBAL DEFAULT    1 _Z9gpio_initv
   188: 000000000009114c   124 FUNC    GLOBAL DEFAULT    1 _Z11uart_printfmPKcz
   189: 0000000000091464     8 FUNC    GLOBAL DEFAULT    1 _Z5Yieldv
   190: 000000000009145c     8 FUNC    GLOBAL DEFAULT    1 _Z11MyParentTidv
   191: 000000000009071c    44 FUNC    GLOBAL DEFAULT    1 _Z13isBufferEmpt[...]
   192: 0000000000091420    52 FUNC    GLOBAL DEFAULT    1 _Z6CreateiPFvvE
   193: 00000000000906b8    36 FUNC    GLOBAL DEFAULT    1 _Z10initBufferP1[...]
   194: 0000000000090748   124 FUNC    GLOBAL DEFAULT    1 _Z11printBufferP[...]
   195: 0000000000090c38    56 FUNC    GLOBAL DEFAULT    1 _Z20is_input_buf[...]
   196: 00000000000903c8   356 FUNC    GLOBAL DEFAULT    1 _Z7kerexitP14Tas[...]
   197: 0000000000092000     0 NOTYPE  GLOBAL DEFAULT    3 exception_vector[...]
   198: 0000000000093398  2056 OBJECT  GLOBAL DEFAULT    7 IObufferMarklin
   199: 0000000000090ddc   100 FUNC    GLOBAL DEFAULT    1 _Z9uart_putlmPKcm
   200: 0000000000090c0c    44 FUNC    GLOBAL DEFAULT    1 _Z9uart_getcm
   201: 0000000000090e94   696 FUNC    GLOBAL DEFAULT    1 _Z17uart_format_[...]
   202: 0000000000090854   116 FUNC    GLOBAL DEFAULT    1 _Z3popP10RingBuffer
   203: 0000000000093bd0     0 NOTYPE  GLOBAL DEFAULT    7 __bss_end
   204: 0000000000091698    92 FUNC    GLOBAL DEFAULT    1 _Z6memsetPvim
   205: 0000000000090cfc   224 FUNC    GLOBAL DEFAULT    1 _Z13flushIOBufferm
   206: 0000000000091768     0 NOTYPE  GLOBAL DEFAULT    2 bootstrap_task
   207: 0000000000091790     0 NOTYPE  GLOBAL DEFAULT    2 kernel_entry
   208: 000000000009bbd0     0 NOTYPE  GLOBAL DEFAULT    7 __td_slab_end
   209: 0000000000093bc8     4 OBJECT  GLOBAL DEFAULT    7 globalTid
   210: 0000000000091454     8 FUNC    GLOBAL DEFAULT    1 _Z5MyTidv
   211: 0000000000091240   168 FUNC    GLOBAL DEFAULT    1 _ZN13TaskAllocat[...]
   212: 00000000000914ac   128 FUNC    GLOBAL DEFAULT    1 _Z3a2dc
   213: 0000000000080000     0 NOTYPE  GLOBAL DEFAULT    1 _start
   214: 000000000009bbd0     0 NOTYPE  GLOBAL DEFAULT    7 __end
   215: 0000000000090c70    56 FUNC    GLOBAL DEFAULT    1 _Z21is_output_bu[...]
   216: 00000000000912e8    76 FUNC    GLOBAL DEFAULT    1 _ZN13TaskAllocat[...]
   217: 00000000000900d8   284 FUNC    GLOBAL DEFAULT    1 _Z5print3LogPKcz
   218: 0000000000092b58     4 OBJECT  GLOBAL DEFAULT    5 DebugLevel
   219: 0000000000092b90     0 NOTYPE  GLOBAL DEFAULT    7 __bss_start
   220: 0000000000090ca8    84 FUNC    GLOBAL DEFAULT    1 _Z9uart_putcmh
   221: 0000000000092b88     0 NOTYPE  GLOBAL DEFAULT    6 __init_array_end
   222: 0000000000091334    60 FUNC    GLOBAL DEFAULT    1 _ZN13TaskAllocat[...]
   223: 0000000000090e40    84 FUNC    GLOBAL DEFAULT    1 _Z9uart_putsmPKc
   224: 00000000000916f4   116 FUNC    GLOBAL DEFAULT    1 _Z6memcpyPvPKvm
   225: 0000000000090248    20 FUNC    GLOBAL DEFAULT    1 exception
   226: 0000000000093bd0     0 NOTYPE  GLOBAL DEFAULT    7 __td_slab_start
   227: 0000000000091640    88 FUNC    GLOBAL DEFAULT    1 _Z3i2aiPc
   228: 0000000000090ac4   328 FUNC    GLOBAL DEFAULT    1 _Z22uart_config_[...]
   229: 00000000000903b4    20 FUNC    GLOBAL DEFAULT    1 _Z8scheduleP14Ta[...]
   230: 000000000009146c    12 FUNC    GLOBAL DEFAULT    1 _Z4Exitv
   231: 000000000009152c   276 FUNC    GLOBAL DEFAULT    1 _Z4ui2ajjPc
   232: 0000000000092b90  2056 OBJECT  GLOBAL DEFAULT    7 IObufferConsole
   233: 0000000000092b74     4 OBJECT  GLOBAL DEFAULT    5 COLS
   234: 0000000000092b70     4 OBJECT  GLOBAL DEFAULT    5 ROWS
   235: 0000000000091478    52 FUNC    GLOBAL DEFAULT    1 _Z11move_cursorjj
   236: 0000000000092b78     0 NOTYPE  GLOBAL DEFAULT    6 __init_array_start
   237: 0000000000090688    48 FUNC    GLOBAL DEFAULT    1 kmain
   238: 0000000000091240   168 FUNC    GLOBAL DEFAULT    1 _ZN13TaskAllocat[...]
   239: 00000000000906dc    64 FUNC    GLOBAL DEFAULT    1 _Z12isBufferFull[...]

No version information found in this file.
